target datalayout = "e-m:e-p270:32:32-p271:32:32-p272:64:64-i64:64-i128:128-f80:128-n8:16:32:64-S128"
target triple = "x86_64-pc-linux-gnu"

%struct.REParseState = type { %struct.DynBuf, ptr, ptr, ptr, i32, i32, i32, i32, i32, i32, i32, ptr, %struct.DynBuf, %union.anon }
%struct.DynBuf = type { ptr, i64, i64, i32, ptr, ptr }
%union.anon = type { [128 x i8] }
%struct.packed_u32 = type { i32 }

@.str.2 = private unnamed_addr constant [15 x i8] c"stack overflow\00", align 1
@.str.33 = private unnamed_addr constant [14 x i8] c"out of memory\00", align 1

; Function Attrs: nounwind uwtable
define internal i32 @dbuf_put_u32(ptr noundef %0, i32 noundef %1) #0 {
  %3 = alloca ptr, align 8
  %4 = alloca i32, align 4
  store ptr %0, ptr %3, align 8
  store i32 %1, ptr %4, align 4
  %5 = load ptr, ptr %3, align 8
  %6 = call i32 @dbuf_put(ptr noundef %5, ptr noundef %4, i64 noundef 4)
  ret i32 %6
}

; Function Attrs: nounwind uwtable
define internal i32 @re_emit_op_u32(ptr noundef %0, i32 noundef %1, i32 noundef %2) #0 {
  %4 = alloca ptr, align 8
  %5 = alloca i32, align 4
  %6 = alloca i32, align 4
  %7 = alloca i32, align 4
  store ptr %0, ptr %4, align 8
  store i32 %1, ptr %5, align 4
  store i32 %2, ptr %6, align 4
  %8 = load ptr, ptr %4, align 8
  %9 = getelementptr inbounds %struct.REParseState, ptr %8, i32 0, i32 0
  %10 = load i32, ptr %5, align 4
  %11 = trunc i32 %10 to i8
  %12 = call i32 @dbuf_putc(ptr noundef %9, i8 noundef zeroext %11)
  %13 = load ptr, ptr %4, align 8
  %14 = getelementptr inbounds %struct.REParseState, ptr %13, i32 0, i32 0
  %15 = getelementptr inbounds %struct.DynBuf, ptr %14, i32 0, i32 1
  %16 = load i64, ptr %15, align 8
  %17 = trunc i64 %16 to i32
  store i32 %17, ptr %7, align 4
  %18 = load ptr, ptr %4, align 8
  %19 = getelementptr inbounds %struct.REParseState, ptr %18, i32 0, i32 0
  %20 = load i32, ptr %6, align 4
  %21 = call i32 @dbuf_put_u32(ptr noundef %19, i32 noundef %20)
  %22 = load i32, ptr %7, align 4
  ret i32 %22
}

; Function Attrs: nounwind uwtable
define internal void @put_u32(ptr noundef %0, i32 noundef %1) #0 {
  %3 = alloca ptr, align 8
  %4 = alloca i32, align 4
  store ptr %0, ptr %3, align 8
  store i32 %1, ptr %4, align 4
  %5 = load i32, ptr %4, align 4
  %6 = load ptr, ptr %3, align 8
  %7 = getelementptr inbounds %struct.packed_u32, ptr %6, i32 0, i32 0
  store i32 %5, ptr %7, align 1
  ret void
}

; Function Attrs: nounwind uwtable
define internal i32 @re_parse_out_of_memory(ptr noundef %0) #0 {
  %2 = alloca ptr, align 8
  store ptr %0, ptr %2, align 8
  %3 = load ptr, ptr %2, align 8
  %4 = call i32 (ptr, ptr, ...) @re_parse_error(ptr noundef %3, ptr noundef @.str.33)
  ret i32 %4
}

; Function Attrs: nounwind uwtable
define internal i32 @dbuf_insert(ptr noundef %0, i32 noundef %1, i32 noundef %2) #0 {
  %4 = alloca i32, align 4
  %5 = alloca ptr, align 8
  %6 = alloca i32, align 4
  %7 = alloca i32, align 4
  store ptr %0, ptr %5, align 8
  store i32 %1, ptr %6, align 4
  store i32 %2, ptr %7, align 4
  %8 = load ptr, ptr %5, align 8
  %9 = load ptr, ptr %5, align 8
  %10 = getelementptr inbounds %struct.DynBuf, ptr %9, i32 0, i32 1
  %11 = load i64, ptr %10, align 8
  %12 = load i32, ptr %7, align 4
  %13 = sext i32 %12 to i64
  %14 = add i64 %11, %13
  %15 = call i32 @dbuf_realloc(ptr noundef %8, i64 noundef %14)
  %16 = icmp ne i32 %15, 0
  br i1 %16, label %17, label %18

17:                                               ; preds = %3
  store i32 -1, ptr %4, align 4
  br label %46

18:                                               ; preds = %3
  %19 = load ptr, ptr %5, align 8
  %20 = getelementptr inbounds %struct.DynBuf, ptr %19, i32 0, i32 0
  %21 = load ptr, ptr %20, align 8
  %22 = load i32, ptr %6, align 4
  %23 = sext i32 %22 to i64
  %24 = getelementptr i8, ptr %21, i64 %23
  %25 = load i32, ptr %7, align 4
  %26 = sext i32 %25 to i64
  %27 = getelementptr i8, ptr %24, i64 %26
  %28 = load ptr, ptr %5, align 8
  %29 = getelementptr inbounds %struct.DynBuf, ptr %28, i32 0, i32 0
  %30 = load ptr, ptr %29, align 8
  %31 = load i32, ptr %6, align 4
  %32 = sext i32 %31 to i64
  %33 = getelementptr i8, ptr %30, i64 %32
  %34 = load ptr, ptr %5, align 8
  %35 = getelementptr inbounds %struct.DynBuf, ptr %34, i32 0, i32 1
  %36 = load i64, ptr %35, align 8
  %37 = load i32, ptr %6, align 4
  %38 = sext i32 %37 to i64
  %39 = sub i64 %36, %38
  call void @llvm.memmove.p0.p0.i64(ptr align 1 %27, ptr align 1 %33, i64 %39, i1 false)
  %40 = load i32, ptr %7, align 4
  %41 = sext i32 %40 to i64
  %42 = load ptr, ptr %5, align 8
  %43 = getelementptr inbounds %struct.DynBuf, ptr %42, i32 0, i32 1
  %44 = load i64, ptr %43, align 8
  %45 = add i64 %44, %41
  store i64 %45, ptr %43, align 8
  store i32 0, ptr %4, align 4
  br label %46

46:                                               ; preds = %18, %17
  %47 = load i32, ptr %4, align 4
  ret i32 %47
}

; Function Attrs: nounwind uwtable
define internal i32 @re_parse_alternative(ptr noundef %0, i32 noundef %1) #0 {
  %3 = alloca i32, align 4
  %4 = alloca ptr, align 8
  %5 = alloca i32, align 4
  %6 = alloca ptr, align 8
  %7 = alloca i32, align 4
  %8 = alloca i64, align 8
  %9 = alloca i64, align 8
  %10 = alloca i64, align 8
  %11 = alloca i64, align 8
  store ptr %0, ptr %4, align 8
  store i32 %1, ptr %5, align 4
  %12 = load ptr, ptr %4, align 8
  %13 = getelementptr inbounds %struct.REParseState, ptr %12, i32 0, i32 0
  %14 = getelementptr inbounds %struct.DynBuf, ptr %13, i32 0, i32 1
  %15 = load i64, ptr %14, align 8
  store i64 %15, ptr %8, align 8
  br label %16

16:                                               ; preds = %99, %2
  %17 = load ptr, ptr %4, align 8
  %18 = getelementptr inbounds %struct.REParseState, ptr %17, i32 0, i32 1
  %19 = load ptr, ptr %18, align 8
  store ptr %19, ptr %6, align 8
  %20 = load ptr, ptr %6, align 8
  %21 = load ptr, ptr %4, align 8
  %22 = getelementptr inbounds %struct.REParseState, ptr %21, i32 0, i32 2
  %23 = load ptr, ptr %22, align 8
  %24 = icmp uge ptr %20, %23
  br i1 %24, label %25, label %26

25:                                               ; preds = %16
  br label %100

26:                                               ; preds = %16
  %27 = load ptr, ptr %6, align 8
  %28 = load i8, ptr %27, align 1
  %29 = zext i8 %28 to i32
  %30 = icmp eq i32 %29, 124
  br i1 %30, label %36, label %31

31:                                               ; preds = %26
  %32 = load ptr, ptr %6, align 8
  %33 = load i8, ptr %32, align 1
  %34 = zext i8 %33 to i32
  %35 = icmp eq i32 %34, 41
  br i1 %35, label %36, label %37

36:                                               ; preds = %31, %26
  br label %100

37:                                               ; preds = %31
  %38 = load ptr, ptr %4, align 8
  %39 = getelementptr inbounds %struct.REParseState, ptr %38, i32 0, i32 0
  %40 = getelementptr inbounds %struct.DynBuf, ptr %39, i32 0, i32 1
  %41 = load i64, ptr %40, align 8
  store i64 %41, ptr %9, align 8
  %42 = load ptr, ptr %4, align 8
  %43 = load i32, ptr %5, align 4
  %44 = call i32 @re_parse_term(ptr noundef %42, i32 noundef %43)
  store i32 %44, ptr %7, align 4
  %45 = load i32, ptr %7, align 4
  %46 = icmp ne i32 %45, 0
  br i1 %46, label %47, label %49

47:                                               ; preds = %37
  %48 = load i32, ptr %7, align 4
  store i32 %48, ptr %3, align 4
  br label %101

49:                                               ; preds = %37
  %50 = load i32, ptr %5, align 4
  %51 = icmp ne i32 %50, 0
  br i1 %51, label %52, label %99

52:                                               ; preds = %49
  %53 = load ptr, ptr %4, align 8
  %54 = getelementptr inbounds %struct.REParseState, ptr %53, i32 0, i32 0
  %55 = getelementptr inbounds %struct.DynBuf, ptr %54, i32 0, i32 1
  %56 = load i64, ptr %55, align 8
  store i64 %56, ptr %10, align 8
  %57 = load i64, ptr %10, align 8
  %58 = load i64, ptr %9, align 8
  %59 = sub i64 %57, %58
  store i64 %59, ptr %11, align 8
  %60 = load ptr, ptr %4, align 8
  %61 = getelementptr inbounds %struct.REParseState, ptr %60, i32 0, i32 0
  %62 = load i64, ptr %10, align 8
  %63 = load i64, ptr %11, align 8
  %64 = add i64 %62, %63
  %65 = call i32 @dbuf_realloc(ptr noundef %61, i64 noundef %64)
  %66 = icmp ne i32 %65, 0
  br i1 %66, label %67, label %68

67:                                               ; preds = %52
  store i32 -1, ptr %3, align 4
  br label %101

68:                                               ; preds = %52
  %69 = load ptr, ptr %4, align 8
  %70 = getelementptr inbounds %struct.REParseState, ptr %69, i32 0, i32 0
  %71 = getelementptr inbounds %struct.DynBuf, ptr %70, i32 0, i32 0
  %72 = load ptr, ptr %71, align 8
  %73 = load i64, ptr %8, align 8
  %74 = getelementptr i8, ptr %72, i64 %73
  %75 = load i64, ptr %11, align 8
  %76 = getelementptr i8, ptr %74, i64 %75
  %77 = load ptr, ptr %4, align 8
  %78 = getelementptr inbounds %struct.REParseState, ptr %77, i32 0, i32 0
  %79 = getelementptr inbounds %struct.DynBuf, ptr %78, i32 0, i32 0
  %80 = load ptr, ptr %79, align 8
  %81 = load i64, ptr %8, align 8
  %82 = getelementptr i8, ptr %80, i64 %81
  %83 = load i64, ptr %10, align 8
  %84 = load i64, ptr %8, align 8
  %85 = sub i64 %83, %84
  call void @llvm.memmove.p0.p0.i64(ptr align 1 %76, ptr align 1 %82, i64 %85, i1 false)
  %86 = load ptr, ptr %4, align 8
  %87 = getelementptr inbounds %struct.REParseState, ptr %86, i32 0, i32 0
  %88 = getelementptr inbounds %struct.DynBuf, ptr %87, i32 0, i32 0
  %89 = load ptr, ptr %88, align 8
  %90 = load i64, ptr %8, align 8
  %91 = getelementptr i8, ptr %89, i64 %90
  %92 = load ptr, ptr %4, align 8
  %93 = getelementptr inbounds %struct.REParseState, ptr %92, i32 0, i32 0
  %94 = getelementptr inbounds %struct.DynBuf, ptr %93, i32 0, i32 0
  %95 = load ptr, ptr %94, align 8
  %96 = load i64, ptr %10, align 8
  %97 = getelementptr i8, ptr %95, i64 %96
  %98 = load i64, ptr %11, align 8
  call void @llvm.memcpy.p0.p0.i64(ptr align 1 %91, ptr align 1 %97, i64 %98, i1 false)
  br label %99

99:                                               ; preds = %68, %49
  br label %16

100:                                              ; preds = %36, %25
  store i32 0, ptr %3, align 4
  br label %101

101:                                              ; preds = %100, %67, %47
  %102 = load i32, ptr %3, align 4
  ret i32 %102
}

; Function Attrs: nounwind uwtable
define internal i32 @re_parse_disjunction(ptr noundef %0, i32 noundef %1) #0 {
  %3 = alloca i32, align 4
  %4 = alloca ptr, align 8
  %5 = alloca i32, align 4
  %6 = alloca i32, align 4
  %7 = alloca i32, align 4
  %8 = alloca i32, align 4
  store ptr %0, ptr %4, align 8
  store i32 %1, ptr %5, align 4
  %9 = load ptr, ptr %4, align 8
  %10 = getelementptr inbounds %struct.REParseState, ptr %9, i32 0, i32 11
  %11 = load ptr, ptr %10, align 8
  %12 = call i32 @lre_check_stack_overflow(ptr noundef %11, i64 noundef 0)
  %13 = icmp ne i32 %12, 0
  br i1 %13, label %14, label %17

14:                                               ; preds = %2
  %15 = load ptr, ptr %4, align 8
  %16 = call i32 (ptr, ptr, ...) @re_parse_error(ptr noundef %15, ptr noundef @.str.2)
  store i32 %16, ptr %3, align 4
  br label %101

17:                                               ; preds = %2
  %18 = load ptr, ptr %4, align 8
  %19 = getelementptr inbounds %struct.REParseState, ptr %18, i32 0, i32 0
  %20 = getelementptr inbounds %struct.DynBuf, ptr %19, i32 0, i32 1
  %21 = load i64, ptr %20, align 8
  %22 = trunc i64 %21 to i32
  store i32 %22, ptr %6, align 4
  %23 = load ptr, ptr %4, align 8
  %24 = load i32, ptr %5, align 4
  %25 = call i32 @re_parse_alternative(ptr noundef %23, i32 noundef %24)
  %26 = icmp ne i32 %25, 0
  br i1 %26, label %27, label %28

27:                                               ; preds = %17
  store i32 -1, ptr %3, align 4
  br label %101

28:                                               ; preds = %17
  br label %29

29:                                               ; preds = %82, %28
  %30 = load ptr, ptr %4, align 8
  %31 = getelementptr inbounds %struct.REParseState, ptr %30, i32 0, i32 1
  %32 = load ptr, ptr %31, align 8
  %33 = load i8, ptr %32, align 1
  %34 = zext i8 %33 to i32
  %35 = icmp eq i32 %34, 124
  br i1 %35, label %36, label %100

36:                                               ; preds = %29
  %37 = load ptr, ptr %4, align 8
  %38 = getelementptr inbounds %struct.REParseState, ptr %37, i32 0, i32 1
  %39 = load ptr, ptr %38, align 8
  %40 = getelementptr i8, ptr %39, i32 1
  store ptr %40, ptr %38, align 8
  %41 = load ptr, ptr %4, align 8
  %42 = getelementptr inbounds %struct.REParseState, ptr %41, i32 0, i32 0
  %43 = getelementptr inbounds %struct.DynBuf, ptr %42, i32 0, i32 1
  %44 = load i64, ptr %43, align 8
  %45 = load i32, ptr %6, align 4
  %46 = sext i32 %45 to i64
  %47 = sub i64 %44, %46
  %48 = trunc i64 %47 to i32
  store i32 %48, ptr %7, align 4
  %49 = load ptr, ptr %4, align 8
  %50 = getelementptr inbounds %struct.REParseState, ptr %49, i32 0, i32 0
  %51 = load i32, ptr %6, align 4
  %52 = call i32 @dbuf_insert(ptr noundef %50, i32 noundef %51, i32 noundef 5)
  %53 = icmp ne i32 %52, 0
  br i1 %53, label %54, label %57

54:                                               ; preds = %36
  %55 = load ptr, ptr %4, align 8
  %56 = call i32 @re_parse_out_of_memory(ptr noundef %55)
  store i32 %56, ptr %3, align 4
  br label %101

57:                                               ; preds = %36
  %58 = load ptr, ptr %4, align 8
  %59 = getelementptr inbounds %struct.REParseState, ptr %58, i32 0, i32 0
  %60 = getelementptr inbounds %struct.DynBuf, ptr %59, i32 0, i32 0
  %61 = load ptr, ptr %60, align 8
  %62 = load i32, ptr %6, align 4
  %63 = sext i32 %62 to i64
  %64 = getelementptr i8, ptr %61, i64 %63
  store i8 9, ptr %64, align 1
  %65 = load ptr, ptr %4, align 8
  %66 = getelementptr inbounds %struct.REParseState, ptr %65, i32 0, i32 0
  %67 = getelementptr inbounds %struct.DynBuf, ptr %66, i32 0, i32 0
  %68 = load ptr, ptr %67, align 8
  %69 = load i32, ptr %6, align 4
  %70 = sext i32 %69 to i64
  %71 = getelementptr i8, ptr %68, i64 %70
  %72 = getelementptr i8, ptr %71, i64 1
  %73 = load i32, ptr %7, align 4
  %74 = add i32 %73, 5
  call void @put_u32(ptr noundef %72, i32 noundef %74)
  %75 = load ptr, ptr %4, align 8
  %76 = call i32 @re_emit_op_u32(ptr noundef %75, i32 noundef 7, i32 noundef 0)
  store i32 %76, ptr %8, align 4
  %77 = load ptr, ptr %4, align 8
  %78 = load i32, ptr %5, align 4
  %79 = call i32 @re_parse_alternative(ptr noundef %77, i32 noundef %78)
  %80 = icmp ne i32 %79, 0
  br i1 %80, label %81, label %82

81:                                               ; preds = %57
  store i32 -1, ptr %3, align 4
  br label %101

82:                                               ; preds = %57
  %83 = load ptr, ptr %4, align 8
  %84 = getelementptr inbounds %struct.REParseState, ptr %83, i32 0, i32 0
  %85 = getelementptr inbounds %struct.DynBuf, ptr %84, i32 0, i32 1
  %86 = load i64, ptr %85, align 8
  %87 = load i32, ptr %8, align 4
  %88 = add i32 %87, 4
  %89 = sext i32 %88 to i64
  %90 = sub i64 %86, %89
  %91 = trunc i64 %90 to i32
  store i32 %91, ptr %7, align 4
  %92 = load ptr, ptr %4, align 8
  %93 = getelementptr inbounds %struct.REParseState, ptr %92, i32 0, i32 0
  %94 = getelementptr inbounds %struct.DynBuf, ptr %93, i32 0, i32 0
  %95 = load ptr, ptr %94, align 8
  %96 = load i32, ptr %8, align 4
  %97 = sext i32 %96 to i64
  %98 = getelementptr i8, ptr %95, i64 %97
  %99 = load i32, ptr %7, align 4
  call void @put_u32(ptr noundef %98, i32 noundef %99)
  br label %29, !llvm.loop !11

100:                                              ; preds = %29
  store i32 0, ptr %3, align 4
  br label %101

101:                                              ; preds = %100, %81, %54, %27, %14
  %102 = load i32, ptr %3, align 4
  ret i32 %102
}