; Function Attrs: nounwind uwtable
define internal fastcc noundef i32 @re_parse_disjunction(ptr noundef %0, i32 noundef %1) unnamed_addr #2 {
  %3 = alloca i32, align 4
  %4 = getelementptr inbounds i8, ptr %0, i64 104
  %5 = load ptr, ptr %4, align 8
  %6 = tail call i32 @lre_check_stack_overflow(ptr noundef %5, i64 noundef 0) #17
  %.not = icmp eq i32 %6, 0
  br i1 %.not, label %8, label %7

7:                                                ; preds = %2
  tail call void (ptr, ptr, ...) @re_parse_error(ptr noundef nonnull %0, ptr noundef nonnull @.str.2)
  br label %re_parse_alternative.exit35

8:                                                ; preds = %2
  %9 = getelementptr inbounds i8, ptr %0, i64 8
  %10 = load i64, ptr %9, align 8
  %11 = getelementptr inbounds i8, ptr %0, i64 48
  %12 = getelementptr inbounds i8, ptr %0, i64 56
  %13 = load ptr, ptr %11, align 8
  %14 = load ptr, ptr %12, align 8
  %.not.i50 = icmp ult ptr %13, %14
  br i1 %.not.i50, label %.lr.ph, label %re_parse_alternative.exitthread-pre-split

.lr.ph:                                           ; preds = %8
  %.not34.i = icmp eq i32 %1, 0
  br i1 %.not34.i, label %.lr.ph.split.us, label %.lr.ph.split

.lr.ph.split.us:                                  ; preds = %.lr.ph, %19
  %15 = phi ptr [ %20, %19 ], [ %13, %.lr.ph ]
  %16 = load i8, ptr %15, align 1
  switch i8 %16, label %17 [
    i8 124, label %re_parse_alternative.exit
    i8 41, label %re_parse_alternative.exit
  ]

17:                                               ; preds = %.lr.ph.split.us
  %18 = tail call fastcc i32 @re_parse_term(ptr noundef nonnull %0, i32 noundef 0), !range !11
  %.not33.i.us = icmp eq i32 %18, 0
  br i1 %.not33.i.us, label %19, label %re_parse_alternative.exit35

19:                                               ; preds = %17
  %20 = load ptr, ptr %11, align 8
  %21 = load ptr, ptr %12, align 8
  %.not.i.us = icmp ult ptr %20, %21
  br i1 %.not.i.us, label %.lr.ph.split.us, label %re_parse_alternative.exitthread-pre-split

.lr.ph.split:                                     ; preds = %.lr.ph, %32
  %22 = phi ptr [ %40, %32 ], [ %13, %.lr.ph ]
  %23 = load i8, ptr %22, align 1
  switch i8 %23, label %24 [
    i8 124, label %re_parse_alternative.exit
    i8 41, label %re_parse_alternative.exit
  ]

24:                                               ; preds = %.lr.ph.split
  %25 = load i64, ptr %9, align 8
  %26 = tail call fastcc i32 @re_parse_term(ptr noundef nonnull %0, i32 noundef %1), !range !11
  %.not33.i = icmp eq i32 %26, 0
  br i1 %.not33.i, label %27, label %re_parse_alternative.exit35

27:                                               ; preds = %24
  %28 = load i64, ptr %9, align 8
  %29 = sub i64 %28, %25
  %30 = add i64 %29, %28
  %31 = tail call i32 @dbuf_realloc(ptr noundef nonnull %0, i64 noundef %30) #17
  %.not35.i = icmp eq i32 %31, 0
  br i1 %.not35.i, label %32, label %re_parse_alternative.exit35

32:                                               ; preds = %27
  %33 = load ptr, ptr %0, align 8
  %34 = getelementptr i8, ptr %33, i64 %10
  %35 = getelementptr i8, ptr %34, i64 %29
  %36 = sub i64 %28, %10
  tail call void @llvm.memmove.p0.p0.i64(ptr align 1 %35, ptr align 1 %34, i64 %36, i1 false)
  %37 = load ptr, ptr %0, align 8
  %38 = getelementptr i8, ptr %37, i64 %10
  %39 = getelementptr i8, ptr %37, i64 %28
  tail call void @llvm.memcpy.p0.p0.i64(ptr align 1 %38, ptr align 1 %39, i64 %29, i1 false)
  %40 = load ptr, ptr %11, align 8
  %41 = load ptr, ptr %12, align 8
  %.not.i = icmp ult ptr %40, %41
  br i1 %.not.i, label %.lr.ph.split, label %re_parse_alternative.exitthread-pre-split

re_parse_alternative.exitthread-pre-split:        ; preds = %32, %19, %8
  %.ph = phi ptr [ %13, %8 ], [ %20, %19 ], [ %40, %32 ]
  %.pr = load i8, ptr %.ph, align 1
  br label %re_parse_alternative.exit

re_parse_alternative.exit:                        ; preds = %.lr.ph.split, %.lr.ph.split, %.lr.ph.split.us, %.lr.ph.split.us, %re_parse_alternative.exitthread-pre-split
  %42 = phi i8 [ %.pr, %re_parse_alternative.exitthread-pre-split ], [ %16, %.lr.ph.split.us ], [ %16, %.lr.ph.split.us ], [ %23, %.lr.ph.split ], [ %23, %.lr.ph.split ]
  %43 = phi ptr [ %.ph, %re_parse_alternative.exitthread-pre-split ], [ %15, %.lr.ph.split.us ], [ %15, %.lr.ph.split.us ], [ %22, %.lr.ph.split ], [ %22, %.lr.ph.split ]
  %44 = icmp eq i8 %42, 124
  br i1 %44, label %.lr.ph57, label %re_parse_alternative.exit35

.lr.ph57:                                         ; preds = %re_parse_alternative.exit
  %sext42 = shl i64 %10, 32
  %45 = ashr exact i64 %sext42, 32
  %.not34.i33 = icmp eq i32 %1, 0
  br label %46

46:                                               ; preds = %.lr.ph57, %._crit_edge
  %47 = phi ptr [ %43, %.lr.ph57 ], [ %108, %._crit_edge ]
  %48 = getelementptr i8, ptr %47, i64 1
  store ptr %48, ptr %11, align 8
  %49 = load i64, ptr %9, align 8
  %50 = add i64 %49, 5
  %51 = call i32 @dbuf_realloc(ptr noundef nonnull %0, i64 noundef %50) #17
  %.not.i28 = icmp eq i32 %51, 0
  br i1 %.not.i28, label %52, label %dbuf_insert.exit

dbuf_insert.exit:                                 ; preds = %46
  call void (ptr, ptr, ...) @re_parse_error(ptr noundef nonnull %0, ptr noundef nonnull @.str.33)
  br label %re_parse_alternative.exit35

52:                                               ; preds = %46
  %53 = load ptr, ptr %0, align 8
  %54 = getelementptr i8, ptr %53, i64 %45
  %55 = getelementptr i8, ptr %54, i64 5
  %56 = load i64, ptr %9, align 8
  %57 = sub i64 %56, %45
  call void @llvm.memmove.p0.p0.i64(ptr align 1 %55, ptr align 1 %54, i64 %57, i1 false)
  %58 = load i64, ptr %9, align 8
  %59 = add i64 %58, 5
  store i64 %59, ptr %9, align 8
  %60 = sub i64 %49, %10
  %61 = trunc i64 %60 to i32
  %62 = load ptr, ptr %0, align 8
  %63 = getelementptr i8, ptr %62, i64 %45
  store i8 9, ptr %63, align 1
  %64 = load ptr, ptr %0, align 8
  %65 = getelementptr i8, ptr %64, i64 %45
  %66 = getelementptr i8, ptr %65, i64 1
  %67 = add i32 %61, 5
  store i32 %67, ptr %66, align 1
  %68 = call i32 @dbuf_putc(ptr noundef nonnull %0, i8 noundef zeroext 7) #17
  %69 = load i64, ptr %9, align 8
  %70 = trunc i64 %69 to i32
  call void @llvm.lifetime.start.p0(i64 4, ptr nonnull %3)
  store i32 0, ptr %3, align 4
  %71 = call i32 @dbuf_put(ptr noundef nonnull %0, ptr noundef nonnull %3, i64 noundef 4) #17
  call void @llvm.lifetime.end.p0(i64 4, ptr nonnull %3)
  %72 = load i64, ptr %9, align 8
  %73 = load ptr, ptr %11, align 8
  %74 = load ptr, ptr %12, align 8
  %.not.i3053 = icmp ult ptr %73, %74
  br i1 %.not.i3053, label %.lr.ph54, label %._crit_edge

.lr.ph54:                                         ; preds = %52
  br i1 %.not34.i33, label %.lr.ph54.split.us, label %.lr.ph54.split

.lr.ph54.split.us:                                ; preds = %.lr.ph54, %79
  %75 = phi ptr [ %80, %79 ], [ %73, %.lr.ph54 ]
  %76 = load i8, ptr %75, align 1
  switch i8 %76, label %77 [
    i8 124, label %._crit_edge
    i8 41, label %._crit_edge
  ]

77:                                               ; preds = %.lr.ph54.split.us
  %78 = call fastcc i32 @re_parse_term(ptr noundef nonnull %0, i32 noundef 0), !range !11
  %.not33.i32.us = icmp eq i32 %78, 0
  br i1 %.not33.i32.us, label %79, label %re_parse_alternative.exit35

79:                                               ; preds = %77
  %80 = load ptr, ptr %11, align 8
  %81 = load ptr, ptr %12, align 8
  %.not.i30.us = icmp ult ptr %80, %81
  br i1 %.not.i30.us, label %.lr.ph54.split.us, label %._crit_edge

.lr.ph54.split:                                   ; preds = %.lr.ph54, %92
  %82 = phi ptr [ %100, %92 ], [ %73, %.lr.ph54 ]
  %83 = load i8, ptr %82, align 1
  switch i8 %83, label %84 [
    i8 124, label %._crit_edge
    i8 41, label %._crit_edge
  ]

84:                                               ; preds = %.lr.ph54.split
  %85 = load i64, ptr %9, align 8
  %86 = call fastcc i32 @re_parse_term(ptr noundef nonnull %0, i32 noundef %1), !range !11
  %.not33.i32 = icmp eq i32 %86, 0
  br i1 %.not33.i32, label %87, label %re_parse_alternative.exit35

87:                                               ; preds = %84
  %88 = load i64, ptr %9, align 8
  %89 = sub i64 %88, %85
  %90 = add i64 %89, %88
  %91 = call i32 @dbuf_realloc(ptr noundef nonnull %0, i64 noundef %90) #17
  %.not35.i34 = icmp eq i32 %91, 0
  br i1 %.not35.i34, label %92, label %re_parse_alternative.exit35

92:                                               ; preds = %87
  %93 = load ptr, ptr %0, align 8
  %94 = getelementptr i8, ptr %93, i64 %72
  %95 = getelementptr i8, ptr %94, i64 %89
  %96 = sub i64 %88, %72
  call void @llvm.memmove.p0.p0.i64(ptr align 1 %95, ptr align 1 %94, i64 %96, i1 false)
  %97 = load ptr, ptr %0, align 8
  %98 = getelementptr i8, ptr %97, i64 %72
  %99 = getelementptr i8, ptr %97, i64 %88
  call void @llvm.memcpy.p0.p0.i64(ptr align 1 %98, ptr align 1 %99, i64 %89, i1 false)
  %100 = load ptr, ptr %11, align 8
  %101 = load ptr, ptr %12, align 8
  %.not.i30 = icmp ult ptr %100, %101
  br i1 %.not.i30, label %.lr.ph54.split, label %._crit_edge

._crit_edge:                                      ; preds = %92, %.lr.ph54.split, %.lr.ph54.split, %79, %.lr.ph54.split.us, %.lr.ph54.split.us, %52
  %102 = load i64, ptr %9, align 8
  %103 = trunc i64 %102 to i32
  %reass.sub = sub i32 %103, %70
  %104 = add i32 %reass.sub, -4
  %105 = load ptr, ptr %0, align 8
  %sext43 = shl i64 %69, 32
  %106 = ashr exact i64 %sext43, 32
  %107 = getelementptr i8, ptr %105, i64 %106
  store i32 %104, ptr %107, align 1
  %108 = load ptr, ptr %11, align 8
  %109 = load i8, ptr %108, align 1
  %110 = icmp eq i8 %109, 124
  br i1 %110, label %46, label %re_parse_alternative.exit35, !llvm.loop !13

re_parse_alternative.exit35:                      ; preds = %24, %27, %17, %._crit_edge, %84, %87, %77, %re_parse_alternative.exit, %dbuf_insert.exit, %7
  %.0 = phi i32 [ -1, %7 ], [ -1, %dbuf_insert.exit ], [ 0, %re_parse_alternative.exit ], [ -1, %77 ], [ -1, %87 ], [ -1, %84 ], [ 0, %._crit_edge ], [ -1, %17 ], [ -1, %27 ], [ -1, %24 ]
  ret i32 %.0
}